; Function Attrs: nounwind uwtable
define float @b2PrismaticJoint_GetTranslation(i64 %0) local_unnamed_addr #3 {
  %.sroa.2.0.extract.shift = lshr i64 %0, 32
  %2 = trunc nuw i64 %.sroa.2.0.extract.shift to i32
  %3 = and i32 %2, 65535
  %4 = tail call ptr @b2GetWorld(i32 noundef %3) #8
  %5 = tail call ptr @b2GetJointSimCheckType(i64 %0, i32 noundef 4) #8
  %6 = getelementptr inbounds nuw i8, ptr %5, i64 4
  %7 = load i32, ptr %6, align 4, !tbaa !62
  %8 = tail call { <2 x float>, <2 x float> } @b2GetBodyTransform(ptr noundef %4, i32 noundef %7) #8
  %9 = extractvalue { <2 x float>, <2 x float> } %8, 0
  %10 = extractvalue { <2 x float>, <2 x float> } %8, 1
  %11 = getelementptr inbounds nuw i8, ptr %5, i64 8
  %12 = load i32, ptr %11, align 4, !tbaa !64
  %13 = tail call { <2 x float>, <2 x float> } @b2GetBodyTransform(ptr noundef %4, i32 noundef %12) #8
  %14 = extractvalue { <2 x float>, <2 x float> } %13, 0
  %15 = extractvalue { <2 x float>, <2 x float> } %13, 1
  %16 = getelementptr inbounds nuw i8, ptr %5, i64 48
  %17 = load <2 x float>, ptr %16, align 4
  %.sroa.05.0.vec.extract.i = extractelement <2 x float> %10, i64 0
  %.sroa.0.0.vec.extract.i = extractelement <2 x float> %17, i64 0
  %18 = fmul <2 x float> %10, %17
  %19 = extractelement <2 x float> %18, i64 0
  %.sroa.05.4.vec.extract.i = extractelement <2 x float> %10, i64 1
  %.sroa.0.4.vec.extract.i = extractelement <2 x float> %17, i64 1
  %20 = fmul float %.sroa.05.4.vec.extract.i, %.sroa.0.4.vec.extract.i
  %21 = fsub float %19, %20
  %22 = fmul float %.sroa.05.4.vec.extract.i, %.sroa.0.0.vec.extract.i
  %23 = fmul float %.sroa.05.0.vec.extract.i, %.sroa.0.4.vec.extract.i
  %24 = fadd float %22, %23
  %25 = getelementptr inbounds nuw i8, ptr %5, i64 16
  %26 = load <2 x float>, ptr %25, align 4
  %.sroa.0.0.vec.extract.i17 = extractelement <2 x float> %26, i64 0
  %27 = fmul <2 x float> %10, %26
  %28 = extractelement <2 x float> %27, i64 0
  %.sroa.0.4.vec.extract.i18 = extractelement <2 x float> %26, i64 1
  %29 = fmul float %.sroa.05.4.vec.extract.i, %.sroa.0.4.vec.extract.i18
  %30 = fsub float %28, %29
  %.sroa.06.0.vec.extract.i = extractelement <2 x float> %9, i64 0
  %31 = fadd float %.sroa.06.0.vec.extract.i, %30
  %32 = fmul float %.sroa.05.4.vec.extract.i, %.sroa.0.0.vec.extract.i17
  %33 = fmul float %.sroa.05.0.vec.extract.i, %.sroa.0.4.vec.extract.i18
  %34 = fadd float %32, %33
  %.sroa.06.4.vec.extract.i = extractelement <2 x float> %9, i64 1
  %35 = fadd float %.sroa.06.4.vec.extract.i, %34
  %36 = getelementptr inbounds nuw i8, ptr %5, i64 24
  %37 = load <2 x float>, ptr %36, align 4
  %.sroa.3.8.vec.extract.i19 = extractelement <2 x float> %15, i64 0
  %.sroa.0.0.vec.extract.i20 = extractelement <2 x float> %37, i64 0
  %38 = fmul <2 x float> %15, %37
  %39 = extractelement <2 x float> %38, i64 0
  %.sroa.3.12.vec.extract.i21 = extractelement <2 x float> %15, i64 1
  %.sroa.0.4.vec.extract.i22 = extractelement <2 x float> %37, i64 1
  %40 = fmul float %.sroa.3.12.vec.extract.i21, %.sroa.0.4.vec.extract.i22
  %41 = fsub float %39, %40
  %.sroa.06.0.vec.extract.i23 = extractelement <2 x float> %14, i64 0
  %42 = fadd float %.sroa.06.0.vec.extract.i23, %41
  %43 = fmul float %.sroa.3.12.vec.extract.i21, %.sroa.0.0.vec.extract.i20
  %44 = fmul float %.sroa.3.8.vec.extract.i19, %.sroa.0.4.vec.extract.i22
  %45 = fadd float %43, %44
  %.sroa.06.4.vec.extract.i24 = extractelement <2 x float> %14, i64 1
  %46 = fadd float %.sroa.06.4.vec.extract.i24, %45
  %47 = fsub float %42, %31
  %48 = fsub float %46, %35
  %49 = fmul float %21, %47
  %50 = fmul float %24, %48
  %51 = fadd float %49, %50
  ret float %51
}